; Function Attrs: mustprogress nofree norecurse nosync nounwind willreturn memory(argmem: write) uwtable
define void @ma_peak2_config_init(ptr dead_on_unwind noalias writable writeonly sret(%struct.ma_peak2_config) align 8 captures(none) %0, i32 noundef %1, i32 noundef %2, i32 noundef %3, double noundef %4, double noundef %5, double noundef %6) local_unnamed_addr #0 {
  %.not = icmp eq ptr %0, null
  br i1 %.not, label %ma_zero_memory_default.exit, label %8

8:                                                ; preds = %7
  %9 = getelementptr inbounds nuw i8, ptr %0, i64 8
  store i64 0, ptr %9, align 8
  br label %ma_zero_memory_default.exit

ma_zero_memory_default.exit:                      ; preds = %7, %8
  store i32 %1, ptr %0, align 8, !tbaa !630
  %10 = getelementptr inbounds nuw i8, ptr %0, i64 4
  store i32 %2, ptr %10, align 4, !tbaa !632
  %11 = getelementptr inbounds nuw i8, ptr %0, i64 8
  store i32 %3, ptr %11, align 8, !tbaa !633
  %12 = getelementptr inbounds nuw i8, ptr %0, i64 16
  store double %4, ptr %12, align 8, !tbaa !634
  %13 = getelementptr inbounds nuw i8, ptr %0, i64 24
  store double %5, ptr %13, align 8, !tbaa !635
  %14 = getelementptr inbounds nuw i8, ptr %0, i64 32
  store double %6, ptr %14, align 8, !tbaa !636
  %15 = fcmp oeq double %5, 0.000000e+00
  br i1 %15, label %16, label %17

16:                                               ; preds = %ma_zero_memory_default.exit
  store double 7.071070e-01, ptr %13, align 8, !tbaa !635
  br label %17

17:                                               ; preds = %16, %ma_zero_memory_default.exit
  ret void
}